; Function Attrs: mustprogress sspstrong uwtable
define noundef zeroext i1 @_ZN4FLAC8Metadata8Iterator12delete_blockEb(ptr nocapture noundef nonnull readonly align 8 dereferenceable(16) %this, i1 noundef zeroext %replace_with_padding) local_unnamed_addr #0 align 2 {
entry:
  %iterator_ = getelementptr inbounds i8, ptr %this, i64 8
  %0 = load ptr, ptr %iterator_, align 8
  %conv = zext i1 %replace_with_padding to i32
  %call = tail call i32 @FLAC__metadata_iterator_delete_block(ptr noundef %0, i32 noundef %conv)
  %tobool2 = icmp ne i32 %call, 0
  ret i1 %tobool2
}